target datalayout = "e-m:e-p270:32:32-p271:32:32-p272:64:64-i64:64-i128:128-f80:128-n8:16:32:64-S128"
target triple = "x86_64-pc-linux-gnu"

%struct.CreateTableAsStmt = type { i32, ptr, ptr, i32, i8, i8 }

; Function Attrs: nounwind uwtable
define internal zeroext i1 @_equalCreateTableAsStmt(ptr noundef %0, ptr noundef %1) #0 {
  %3 = alloca i1, align 1
  %4 = alloca ptr, align 8
  %5 = alloca ptr, align 8
  store ptr %0, ptr %4, align 8
  store ptr %1, ptr %5, align 8
  br label %6

6:                                                ; preds = %2
  %7 = load ptr, ptr %4, align 8
  %8 = getelementptr inbounds nuw %struct.CreateTableAsStmt, ptr %7, i32 0, i32 1
  %9 = load ptr, ptr %8, align 8
  %10 = load ptr, ptr %5, align 8
  %11 = getelementptr inbounds nuw %struct.CreateTableAsStmt, ptr %10, i32 0, i32 1
  %12 = load ptr, ptr %11, align 8
  %13 = call zeroext i1 @equal(ptr noundef %9, ptr noundef %12)
  br i1 %13, label %15, label %14

14:                                               ; preds = %6
  store i1 false, ptr %3, align 1
  br label %69

15:                                               ; preds = %6
  br label %16

16:                                               ; preds = %15
  br label %17

17:                                               ; preds = %16
  %18 = load ptr, ptr %4, align 8
  %19 = getelementptr inbounds nuw %struct.CreateTableAsStmt, ptr %18, i32 0, i32 2
  %20 = load ptr, ptr %19, align 8
  %21 = load ptr, ptr %5, align 8
  %22 = getelementptr inbounds nuw %struct.CreateTableAsStmt, ptr %21, i32 0, i32 2
  %23 = load ptr, ptr %22, align 8
  %24 = call zeroext i1 @equal(ptr noundef %20, ptr noundef %23)
  br i1 %24, label %26, label %25

25:                                               ; preds = %17
  store i1 false, ptr %3, align 1
  br label %69

26:                                               ; preds = %17
  br label %27

27:                                               ; preds = %26
  br label %28

28:                                               ; preds = %27
  %29 = load ptr, ptr %4, align 8
  %30 = getelementptr inbounds nuw %struct.CreateTableAsStmt, ptr %29, i32 0, i32 3
  %31 = load i32, ptr %30, align 8
  %32 = load ptr, ptr %5, align 8
  %33 = getelementptr inbounds nuw %struct.CreateTableAsStmt, ptr %32, i32 0, i32 3
  %34 = load i32, ptr %33, align 8
  %35 = icmp ne i32 %31, %34
  br i1 %35, label %36, label %37

36:                                               ; preds = %28
  store i1 false, ptr %3, align 1
  br label %69

37:                                               ; preds = %28
  br label %38

38:                                               ; preds = %37
  br label %39

39:                                               ; preds = %38
  %40 = load ptr, ptr %4, align 8
  %41 = getelementptr inbounds nuw %struct.CreateTableAsStmt, ptr %40, i32 0, i32 4
  %42 = load i8, ptr %41, align 4, !range !4, !noundef !5
  %43 = trunc i8 %42 to i1
  %44 = zext i1 %43 to i32
  %45 = load ptr, ptr %5, align 8
  %46 = getelementptr inbounds nuw %struct.CreateTableAsStmt, ptr %45, i32 0, i32 4
  %47 = load i8, ptr %46, align 4, !range !4, !noundef !5
  %48 = trunc i8 %47 to i1
  %49 = zext i1 %48 to i32
  %50 = icmp ne i32 %44, %49
  br i1 %50, label %51, label %52

51:                                               ; preds = %39
  store i1 false, ptr %3, align 1
  br label %69

52:                                               ; preds = %39
  br label %53

53:                                               ; preds = %52
  br label %54

54:                                               ; preds = %53
  %55 = load ptr, ptr %4, align 8
  %56 = getelementptr inbounds nuw %struct.CreateTableAsStmt, ptr %55, i32 0, i32 5
  %57 = load i8, ptr %56, align 1, !range !4, !noundef !5
  %58 = trunc i8 %57 to i1
  %59 = zext i1 %58 to i32
  %60 = load ptr, ptr %5, align 8
  %61 = getelementptr inbounds nuw %struct.CreateTableAsStmt, ptr %60, i32 0, i32 5
  %62 = load i8, ptr %61, align 1, !range !4, !noundef !5
  %63 = trunc i8 %62 to i1
  %64 = zext i1 %63 to i32
  %65 = icmp ne i32 %59, %64
  br i1 %65, label %66, label %67

66:                                               ; preds = %54
  store i1 false, ptr %3, align 1
  br label %69

67:                                               ; preds = %54
  br label %68

68:                                               ; preds = %67
  store i1 true, ptr %3, align 1
  br label %69

69:                                               ; preds = %68, %66, %51, %36, %25, %14
  %70 = load i1, ptr %3, align 1
  ret i1 %70
}