; Function Attrs: nounwind uwtable
define internal fastcc noundef zeroext i1 @_equalCreateTableAsStmt(ptr noundef nonnull readonly captures(none) %0, ptr noundef nonnull readonly captures(none) %1) unnamed_addr #0 {
  %3 = getelementptr inbounds nuw i8, ptr %0, i64 8
  %4 = load ptr, ptr %3, align 8
  %5 = getelementptr inbounds nuw i8, ptr %1, i64 8
  %6 = load ptr, ptr %5, align 8
  %7 = tail call zeroext i1 @equal(ptr noundef %4, ptr noundef %6)
  br i1 %7, label %8, label %29

8:                                                ; preds = %2
  %9 = getelementptr inbounds nuw i8, ptr %0, i64 16
  %10 = load ptr, ptr %9, align 8
  %11 = getelementptr inbounds nuw i8, ptr %1, i64 16
  %12 = load ptr, ptr %11, align 8
  %13 = tail call zeroext i1 @equal(ptr noundef %10, ptr noundef %12)
  br i1 %13, label %14, label %29

14:                                               ; preds = %8
  %15 = getelementptr inbounds nuw i8, ptr %0, i64 24
  %16 = load i32, ptr %15, align 8
  %17 = getelementptr inbounds nuw i8, ptr %1, i64 24
  %18 = load i32, ptr %17, align 8
  %.not = icmp eq i32 %16, %18
  br i1 %.not, label %19, label %29

19:                                               ; preds = %14
  %20 = getelementptr inbounds nuw i8, ptr %0, i64 28
  %21 = load i8, ptr %20, align 4, !range !4, !noundef !5
  %22 = getelementptr inbounds nuw i8, ptr %1, i64 28
  %23 = load i8, ptr %22, align 4, !range !4, !noundef !5
  %.not11 = icmp eq i8 %21, %23
  br i1 %.not11, label %24, label %29

24:                                               ; preds = %19
  %25 = getelementptr inbounds nuw i8, ptr %0, i64 29
  %26 = load i8, ptr %25, align 1, !range !4, !noundef !5
  %27 = getelementptr inbounds nuw i8, ptr %1, i64 29
  %28 = load i8, ptr %27, align 1, !range !4, !noundef !5
  %.not12 = icmp eq i8 %26, %28
  br label %29

29:                                               ; preds = %24, %19, %14, %8, %2
  %.0 = phi i1 [ false, %2 ], [ false, %8 ], [ false, %14 ], [ false, %19 ], [ %.not12, %24 ]
  ret i1 %.0
}